HI-TECH Software C Compiler 

Linker command line:

--edf=C:\Program Files (x86)\HI-TECH Software\PICC\9.83\dat\en_msgs.txt -cs \
  -h+dist/default/production\SemaBienD.X.production.sym -z -Q16F886 -ol.obj \
  -Mdist/default/production/SemaBienD.X.production.map -E1 \
  -ACONST=00h-0FFhx32 -ACODE=00h-07FFhx4 -ASTRCODE=00h-01FFFh \
  -AENTRY=00h-0FFhx32 -ASTRING=00h-0FFhx32 -ABANK0=020h-06Fh \
  -ABANK1=0A0h-0EFh -ABANK2=0110h-016Fh -ABANK3=0190h-01EFh \
  -ARAM=020h-06Fh,0A0h-0EFh,0110h-016Fh,0190h-01EFh \
  -AABS1=020h-07Fh,0A0h-0EFh,0110h-016Fh,0190h-01EFh -ACOMMON=070h-07Fh \
  -ASFR0=00h-01Fh -ASFR1=080h-09Fh -ASFR2=0100h-010Fh -ASFR3=0180h-018Fh \
  -preset_vec=00h,intentry=04h,init,end_init -ppowerup=CODE -pfunctab=CODE \
  -ACONFIG=02007h-02008h -pconfig=CONFIG -DCONFIG=2 -AIDLOC=02000h-02003h \
  -pidloc=IDLOC -DIDLOC=2 -AEEDATA=00h-0FFh/02100h -peeprom_data=EEDATA \
  -DEEDATA=2 -DCODE=2 -DSTRCODE=2 -DSTRING=2 -DCONST=2 -DENTRY=2 -k \
  C:\Users\Tincho\AppData\Local\Temp\s4js.obj \
  dist/default/production\SemaBienD.X.production.obj 

Object code version is 3.10

Machine type is 16F886



                Name                               Link     Load   Length Selector   Space Scale
C:\Users\Tincho\AppData\Local\Temp\s4js.obj
                end_init                              E        E        3        8       0
                reset_vec                             0        0        3        0       0
dist/default/production\SemaBienD.X.production.obj
                intentry                              4        4        A        8       0
                config                             2007     2007        2     400E       0
                text336                              11       11       AC        8       0
                text328                             1D0      1D0       74        8       0
                text327                             29E      29E       38        8       0
                text324                             15B      15B       75        8       0
                text323                             244      244       5A        8       0
                maintext                             BD       BD       9E        8       0
                cstackBANK0                          35       35        1       20       1
                cstackCOMMON                         70       70        A       70       1
                clrtext                             2E1      2E1        8        8       0
                bssBANK0                             20       20       15       20       1
                cinit                               2D6      2D6        B        8       0

TOTAL           Name                               Link     Load   Length     Space
        CLASS   CONST          

        CLASS   CODE           
                end_init                              E        E        3         0
                intentry                              4        4        A         0
                reset_vec                             0        0        3         0
                text336                              11       11       AC         0
                text328                             1D0      1D0       74         0
                text327                             29E      29E       38         0
                text324                             15B      15B       75         0
                text323                             244      244       5A         0
                maintext                             BD       BD       9E         0
                clrtext                             2E1      2E1        8         0
                cinit                               2D6      2D6        B         0

        CLASS   STRCODE        

        CLASS   ENTRY          

        CLASS   STRING         

        CLASS   BANK0          
                cstackBANK0                          35       35        1         1
                bssBANK0                             20       20       15         1

        CLASS   BANK1          

        CLASS   BANK2          

        CLASS   BANK3          

        CLASS   RAM            

        CLASS   ABS1           
                abs_s1                               7E       7E        2         1

        CLASS   COMMON         
                cstackCOMMON                         70       70        A         1

        CLASS   SFR0           

        CLASS   SFR1           

        CLASS   SFR2           

        CLASS   SFR3           

        CLASS   CONFIG         
                config                             2007     2007        2         0

        CLASS   IDLOC          

        CLASS   EEDATA         



SEGMENTS        Name                           Load    Length   Top    Selector   Space  Class     Delta

                reset_vec                      000000  000003  000003         0       0  CODE        2
                intentry                       000004  0002E5  0002E9         8       0  CODE        2
                bssBANK0                       000020  000016  000036        20       1  BANK0       1
                cstackCOMMON                   000070  00000A  00007A        70       1  COMMON      1
                config                         002007  000002  002009      400E       0  CONFIG      2


UNUSED ADDRESS RANGES

        Name                Unused          Largest block    Delta
        BANK0            0036-006F             3A           1
        BANK1            00A0-00EF             50           1
        BANK2            0110-016F             60           1
        BANK3            0190-01EF             60           1
        CODE             0003-0003              1           2
                         02E9-1FFF            800
        COMMON           007A-007D              4           1
        CONST            0003-0003              1           2
                         02E9-1FFF            100
        EEDATA           2100-21FF            100           2
        ENTRY            0003-0003              1           2
                         02E9-1FFF            100
        IDLOC            2000-2003              4           2
        RAM              0036-006F             3A           1
                         00A0-00EF             50
                         0110-016F             60
                         0190-01EF             60
        SFR0             0000-001F             20           1
        SFR1             0080-009F             20           1
        SFR2             0100-010F             10           1
        SFR3             0180-018F             10           1
        STRCODE          0003-0003              1           2
                         02E9-1FFF           1D17
        STRING           0003-0003              1           2
                         02E9-1FFF            100

                                  Symbol Table

??_Display                    cstackCOMMON 0078
??___bmul                     cstackCOMMON 0075
??___lbdiv                    cstackCOMMON 0075
??_configADC                  cstackCOMMON 0074
??_configCCP                  cstackCOMMON 0074
??_configComparadores         cstackCOMMON 0074
??_configDevice               cstackCOMMON 0074
??_configInterrupts           cstackCOMMON 0074
??_configOscilador            cstackCOMMON 0074
??_configPorts                cstackCOMMON 0074
??_configTimers               cstackCOMMON 0074
??_controlTiempos             cstackCOMMON 0074
??_interrupciones             cstackCOMMON 0071
??_leerEntradasC              cstackCOMMON 0074
??_main                       cstackCOMMON 007A
??_var2num                    cstackCOMMON 0070
?_Display                     cstackCOMMON 0070
?___bmul                      cstackCOMMON 0074
?___lbdiv                     cstackCOMMON 0074
?_configADC                   cstackCOMMON 0070
?_configCCP                   cstackCOMMON 0070
?_configComparadores          cstackCOMMON 0070
?_configDevice                cstackCOMMON 0070
?_configInterrupts            cstackCOMMON 0070
?_configOscilador             cstackCOMMON 0070
?_configPorts                 cstackCOMMON 0070
?_configTimers                cstackCOMMON 0070
?_controlTiempos              cstackCOMMON 0070
?_interrupciones              cstackCOMMON 0070
?_leerEntradasC               cstackCOMMON 0070
?_main                        cstackCOMMON 0070
?_var2num                     cstackCOMMON 0070
Display@sema                  cstackBANK0  0035
_ADCON0                       (abs)        001F
_ADCON1                       (abs)        009F
_ANSEL                        (abs)        0188
_ANSELH                       (abs)        0189
_CARRY                        (abs)        0018
_CCP1CON                      (abs)        0017
_CCP1IE                       (abs)        0462
_CCP2CON                      (abs)        001D
_CCP2IE                       (abs)        0468
_CHS0                         (abs)        00FA
_CHS1                         (abs)        00FB
_CHS2                         (abs)        00FC
_CHS3                         (abs)        00FD
_CM1CON0                      (abs)        0107
_CM2CON0                      (abs)        0108
_Display                      text323      0244
_EEADR                        (abs)        010D
_EECON1                       (abs)        018C
_EECON2                       (abs)        018D
_EEDATA                       (abs)        010C
_GIE                          (abs)        005F
_INTE                         (abs)        005C
_INTEDG                       (abs)        040E
_INTF                         (abs)        0059
_OSCCON                       (abs)        008F
_PEIE                         (abs)        005E
_PORTA                        (abs)        0005
_PORTB                        (abs)        0006
_PORTC                        (abs)        0007
_PR2                          (abs)        0092
_PS0                          (abs)        0408
_PS1                          (abs)        0409
_PS2                          (abs)        040A
_PSA                          (abs)        040B
_RB2                          (abs)        0032
_RB4                          (abs)        0034
_RB5                          (abs)        0035
_RBIE                         (abs)        005B
_RBIF                         (abs)        0058
_RC3                          (abs)        003B
_RD                           (abs)        0C60
_T0CS                         (abs)        040D
_T0IE                         (abs)        005D
_T0IF                         (abs)        005A
_T0SE                         (abs)        040C
_T1CKPS0                      (abs)        0084
_T1CKPS1                      (abs)        0085
_T1OSCEN                      (abs)        0083
_T2CKPS0                      (abs)        0090
_T2CKPS1                      (abs)        0091
_TMR0                         (abs)        0001
_TMR1CS                       (abs)        0081
_TMR1H                        (abs)        000F
_TMR1IE                       (abs)        0460
_TMR1IF                       (abs)        0060
_TMR1L                        (abs)        000E
_TMR1ON                       (abs)        0080
_TMR2                         (abs)        0011
_TMR2IE                       (abs)        0461
_TMR2IF                       (abs)        0061
_TMR2ON                       (abs)        0092
_TOUTPS0                      (abs)        0093
_TOUTPS1                      (abs)        0094
_TOUTPS2                      (abs)        0095
_TOUTPS3                      (abs)        0096
_TRISA                        (abs)        0085
_TRISB                        (abs)        0086
_TRISC                        (abs)        0087
_VCFG0                        (abs)        04FC
_VCFG1                        (abs)        04FD
_WPUB                         (abs)        0095
_WR                           (abs)        0C61
_WREN                         (abs)        0C62
__Habs1                       abs1         0000
__Hbank0                      bank0        0000
__Hbank1                      bank1        0000
__Hbank2                      bank2        0000
__Hbank3                      bank3        0000
__HbssBANK0                   bssBANK0     0000
__Hcinit                      cinit        0000
__Hclrtext                    clrtext      0000
__Hcode                       code         0000
__Hcommon                     common       0000
__Hconfig                     config       2009
__HcstackBANK0                cstackBANK0  0000
__HcstackCOMMON               cstackCOMMON 0000
__Heeprom_data                eeprom_data  0000
__Hend_init                   end_init     0011
__Hfunctab                    functab      0000
__Hidloc                      idloc        0000
__Hinit                       init         000E
__Hintentry                   intentry     000E
__Hmaintext                   maintext     0000
__Hpa_nodes                   pa_nodes     0000
__Hpowerup                    powerup      0000
__Hram                        ram          0000
__Hreset_vec                  reset_vec    0003
__Hsfr0                       sfr0         0000
__Hsfr1                       sfr1         0000
__Hsfr2                       sfr2         0000
__Hsfr3                       sfr3         0000
__Hstrings                    strings      0000
__Htext                       text         0000
__Labs1                       abs1         0000
__Lbank0                      bank0        0000
__Lbank1                      bank1        0000
__Lbank2                      bank2        0000
__Lbank3                      bank3        0000
__LbssBANK0                   bssBANK0     0000
__Lcinit                      cinit        0000
__Lclrtext                    clrtext      0000
__Lcode                       code         0000
__Lcommon                     common       0000
__Lconfig                     config       2007
__LcstackBANK0                cstackBANK0  0000
__LcstackCOMMON               cstackCOMMON 0000
__Leeprom_data                eeprom_data  0000
__Lend_init                   end_init     000E
__Lfunctab                    functab      0000
__Lidloc                      idloc        0000
__Linit                       init         000E
__Lintentry                   intentry     0004
__Lmaintext                   maintext     0000
__Lpa_nodes                   pa_nodes     0000
__Lpowerup                    powerup      0000
__Lram                        ram          0000
__Lreset_vec                  reset_vec    0000
__Lsfr0                       sfr0         0000
__Lsfr1                       sfr1         0000
__Lsfr2                       sfr2         0000
__Lsfr3                       sfr3         0000
__Lstrings                    strings      0000
__Ltext                       text         0000
__S0                          (abs)        2009
__S1                          (abs)        007A
__S2                          (abs)        0000
___bmul                       text323      0275
___bmul@multiplicand          cstackCOMMON 0074
___bmul@multiplier            cstackCOMMON 0076
___bmul@product               cstackCOMMON 0075
___lbdiv                      text323      0283
___lbdiv@counter              cstackCOMMON 0076
___lbdiv@dividend             cstackCOMMON 0075
___lbdiv@divisor              cstackCOMMON 0074
___lbdiv@quotient             cstackCOMMON 0077
__end_of_Display              text323      0275
__end_of___bmul               text323      0283
__end_of___lbdiv              text323      029E
__end_of_configADC            text324      01C0
__end_of_configCCP            text324      01C7
__end_of_configComparadores   text324      01CB
__end_of_configDevice         text324      016E
__end_of_configInterrupts     text324      018D
__end_of_configOscilador      text324      01D0
__end_of_configPorts          text324      0183
__end_of_configTimers         text324      01B3
__end_of_controlTiempos       text328      0244
__end_of_interrupciones       text336      0050
__end_of_leerEntradasC        text327      02D6
__end_of_main                 maintext     015B
__end_of_var2num              text336      00BD
__pbssBANK0                   bssBANK0     0020
__pcstackBANK0                cstackBANK0  0035
__pcstackCOMMON               cstackCOMMON 0070
__pintentry                   intentry     0004
__pmaintext                   maintext     00BD
__ptext322                    text322      0000
__ptext323                    text323      0244
__ptext324                    text324      015B
__ptext325                    text323      0283
__ptext326                    text323      0275
__ptext327                    text327      029E
__ptext328                    text328      01D0
__ptext329                    text324      01CB
__ptext330                    text324      01C7
__ptext331                    text324      01C0
__ptext332                    text324      01B3
__ptext333                    text324      018D
__ptext334                    text324      0183
__ptext335                    text324      016E
__ptext336                    text336      0011
__ptext337                    text336      0050
__ptext338                    text338      0000
__size_of_Display             (abs)        0000
__size_of___bmul              (abs)        0000
__size_of___lbdiv             (abs)        0000
__size_of_configADC           (abs)        0000
__size_of_configCCP           (abs)        0000
__size_of_configComparadores  (abs)        0000
__size_of_configDevice        (abs)        0000
__size_of_configInterrupts    (abs)        0000
__size_of_configOscilador     (abs)        0000
__size_of_configPorts         (abs)        0000
__size_of_configTimers        (abs)        0000
__size_of_controlTiempos      (abs)        0000
__size_of_interrupciones      (abs)        0000
__size_of_leerEntradasC       (abs)        0000
__size_of_main                (abs)        0000
__size_of_var2num             (abs)        0000
_configADC                    text324      01B3
_configCCP                    text324      01C0
_configComparadores           text324      01C7
_configDevice                 text324      015B
_configInterrupts             text324      0183
_configOscilador              text324      01CB
_configPorts                  text324      016E
_configTimers                 text324      018D
_controlTiempos               text328      01D0
_core                         bssBANK0     0020
_exit                         init         000E
_interrupciones               text336      0011
_leerEntradasC                text327      029E
_main                         maintext     00BD
_nRBPU                        (abs)        040F
_nT1SYNC                      (abs)        0082
_semaforo                     bssBANK0     002B
_var2num                      text336      0050
btemp                         (abs)        007E
clear_ram                     clrtext      02E1
controlTiempos@this           cstackCOMMON 0074
end_of_initialization         cinit        02DD
i1l5804                                        
i1l5904                                        
i1l5910                                        
i1l5918                                        
i1l5922                                        
i1l5928                                        
i1l5932                                        
interrupt_function            intentry     0004
intlevel0                     functab      0000
intlevel1                     functab      0000
intlevel2                     functab      0000
intlevel3                     functab      0000
intlevel4                     functab      0000
intlevel5                     functab      0000
l1001                                          
l1004                                          
l4933                                          
l4969                                          
l5736                                          
l5738                                          
l5740                                          
l5742                                          
l5744                                          
l5746                                          
l5748                                          
l5750                                          
l5752                                          
l5754                                          
l5756                                          
l5758                                          
l5760                                          
l5762                                          
l5764                                          
l5766                                          
l5768                                          
l5770                                          
l5772                                          
l5774                                          
l5776                                          
l5778                                          
l5780                                          
l5782                                          
l5784                                          
l5786                                          
l5788                                          
l5790                                          
l5792                                          
l5794                                          
l5796                                          
l5798                                          
l5800                                          
l5846                                          
l5848                                          
l5850                                          
l5854                                          
l5874                                          
l5878                                          
l5880                                          
l5884                                          
l5888                                          
l5890                                          
l5894                                          
l5898                                          
l5902                                          
l5938                                          
l5946                                          
l5948                                          
l5954                                          
l5956                                          
l5958                                          
l5964                                          
l5968                                          
l5972                                          
l5978                                          
l5980                                          
l5982                                          
l5984                                          
l5986                                          
l5988                                          
l5990                                          
l5992                                          
l5994                                          
l5998                                          
l6000                                          
l6002                                          
l6004                                          
l6006                                          
l6008                                          
l6014                                          
l6026                                          
l6036                                          
l6040                                          
l6042                                          
l6044                                          
l6046                                          
l6048                                          
l6050                                          
l6060                                          
l6062                                          
l6070                                          
l6072                                          
l6080                                          
l6086                                          
l6088                                          
l6090                                          
l6098                                          
l6100                                          
l6102                                          
l6106                                          
l6108                                          
l6110                                          
l6112                                          
l983                                           
l986                                           
l989                                           
l992                                           
l995                                           
l998                                           
leerEntradasC@auxiliarLectura cstackCOMMON 0075
leerEntradasC@diferencia      cstackCOMMON 0074
leerEntradasC@this            cstackCOMMON 0076
reset_vec                     reset_vec    0000
saved_w                       (abs)        007E
start                         init         000E
start_initialization          cinit        02D6
var2num@temp                  cstackCOMMON 0070
wtemp0                        (abs)        007E
